; ModuleID = '38/36.c'
source_filename = "38/36.c"
target datalayout = "e-m:e-p270:32:32-p271:32:32-p272:64:64-i64:64-f80:128-n8:16:32:64-S128"
target triple = "x86_64-pc-linux-gnu"

@.str = private unnamed_addr constant [3 x i8] c"%d\00", align 1
@.str.1 = private unnamed_addr constant [4 x i8] c"%lf\00", align 1
@.str.2 = private unnamed_addr constant [7 x i8] c"%.5lf\0A\00", align 1

; Function Attrs: noinline nounwind uwtable
define dso_local i32 @main() #0 {
  %1 = alloca i32, align 4
  %2 = alloca i32, align 4
  %3 = alloca i32, align 4
  %4 = alloca i32, align 4
  %5 = alloca double*, align 8
  %6 = alloca i32, align 4
  %7 = alloca double, align 8
  %8 = alloca double, align 8
  %9 = alloca double, align 8
  %10 = alloca double, align 8
  store i32 0, i32* %1, align 4
  %11 = call i32 (i8*, ...) @__isoc99_scanf(i8* getelementptr inbounds ([3 x i8], [3 x i8]* @.str, i64 0, i64 0), i32* %2)
  store i32 0, i32* %3, align 4
  br label %12

12:                                               ; preds = %92, %0
  %13 = load i32, i32* %3, align 4
  %14 = load i32, i32* %2, align 4
  %15 = icmp slt i32 %13, %14
  br i1 %15, label %16, label %95

16:                                               ; preds = %12
  %17 = call i32 (i8*, ...) @__isoc99_scanf(i8* getelementptr inbounds ([3 x i8], [3 x i8]* @.str, i64 0, i64 0), i32* %4)
  %18 = load i32, i32* %4, align 4
  %19 = sext i32 %18 to i64
  %20 = mul i64 8, %19
  %21 = call noalias i8* @malloc(i64 %20) #3
  %22 = bitcast i8* %21 to double*
  store double* %22, double** %5, align 8
  store i32 0, i32* %6, align 4
  br label %23

23:                                               ; preds = %33, %16
  %24 = load i32, i32* %6, align 4
  %25 = load i32, i32* %4, align 4
  %26 = icmp slt i32 %24, %25
  br i1 %26, label %27, label %36

27:                                               ; preds = %23
  %28 = load double*, double** %5, align 8
  %29 = load i32, i32* %6, align 4
  %30 = sext i32 %29 to i64
  %31 = getelementptr inbounds double, double* %28, i64 %30
  %32 = call i32 (i8*, ...) @__isoc99_scanf(i8* getelementptr inbounds ([4 x i8], [4 x i8]* @.str.1, i64 0, i64 0), double* %31)
  br label %33

33:                                               ; preds = %27
  %34 = load i32, i32* %6, align 4
  %35 = add nsw i32 %34, 1
  store i32 %35, i32* %6, align 4
  br label %23

36:                                               ; preds = %23
  store double 0.000000e+00, double* %7, align 8
  store i32 0, i32* %6, align 4
  br label %37

37:                                               ; preds = %49, %36
  %38 = load i32, i32* %6, align 4
  %39 = load i32, i32* %4, align 4
  %40 = icmp slt i32 %38, %39
  br i1 %40, label %41, label %52

41:                                               ; preds = %37
  %42 = load double, double* %7, align 8
  %43 = load double*, double** %5, align 8
  %44 = load i32, i32* %6, align 4
  %45 = sext i32 %44 to i64
  %46 = getelementptr inbounds double, double* %43, i64 %45
  %47 = load double, double* %46, align 8
  %48 = fadd double %42, %47
  store double %48, double* %7, align 8
  br label %49

49:                                               ; preds = %41
  %50 = load i32, i32* %6, align 4
  %51 = add nsw i32 %50, 1
  store i32 %51, i32* %6, align 4
  br label %37

52:                                               ; preds = %37
  %53 = load double, double* %7, align 8
  %54 = load i32, i32* %4, align 4
  %55 = sitofp i32 %54 to double
  %56 = fdiv double %53, %55
  store double %56, double* %8, align 8
  store double 0.000000e+00, double* %9, align 8
  store i32 0, i32* %6, align 4
  br label %57

57:                                               ; preds = %79, %52
  %58 = load i32, i32* %6, align 4
  %59 = load i32, i32* %4, align 4
  %60 = icmp slt i32 %58, %59
  br i1 %60, label %61, label %82

61:                                               ; preds = %57
  %62 = load double, double* %9, align 8
  %63 = load double*, double** %5, align 8
  %64 = load i32, i32* %6, align 4
  %65 = sext i32 %64 to i64
  %66 = getelementptr inbounds double, double* %63, i64 %65
  %67 = load double, double* %66, align 8
  %68 = load double, double* %8, align 8
  %69 = fsub double %67, %68
  %70 = load double*, double** %5, align 8
  %71 = load i32, i32* %6, align 4
  %72 = sext i32 %71 to i64
  %73 = getelementptr inbounds double, double* %70, i64 %72
  %74 = load double, double* %73, align 8
  %75 = load double, double* %8, align 8
  %76 = fsub double %74, %75
  %77 = fmul double %69, %76
  %78 = fadd double %62, %77
  store double %78, double* %9, align 8
  br label %79

79:                                               ; preds = %61
  %80 = load i32, i32* %6, align 4
  %81 = add nsw i32 %80, 1
  store i32 %81, i32* %6, align 4
  br label %57

82:                                               ; preds = %57
  %83 = load double, double* %9, align 8
  %84 = load i32, i32* %4, align 4
  %85 = sitofp i32 %84 to double
  %86 = fdiv double %83, %85
  %87 = call double @sqrt(double %86) #3
  store double %87, double* %10, align 8
  %88 = load double, double* %10, align 8
  %89 = call i32 (i8*, ...) @printf(i8* getelementptr inbounds ([7 x i8], [7 x i8]* @.str.2, i64 0, i64 0), double %88)
  %90 = load double*, double** %5, align 8
  %91 = bitcast double* %90 to i8*
  call void @free(i8* %91) #3
  br label %92

92:                                               ; preds = %82
  %93 = load i32, i32* %3, align 4
  %94 = add nsw i32 %93, 1
  store i32 %94, i32* %3, align 4
  br label %12

95:                                               ; preds = %12
  ret i32 0
}

declare dso_local i32 @__isoc99_scanf(i8*, ...) #1

; Function Attrs: nounwind
declare dso_local noalias i8* @malloc(i64) #2

; Function Attrs: nounwind
declare dso_local double @sqrt(double) #2

declare dso_local i32 @printf(i8*, ...) #1

; Function Attrs: nounwind
declare dso_local void @free(i8*) #2


!llvm.module.flags = !{!0}
!llvm.ident = !{!1}

!0 = !{i32 1, !"wchar_size", i32 4}
!1 = !{!"clang version 10.0.0-4ubuntu1 "}
